target datalayout = "e-m:e-p270:32:32-p271:32:32-p272:64:64-i64:64-i128:128-f80:128-n8:16:32:64-S128"
target triple = "x86_64-pc-linux-gnu"

%struct.CVodeMemRec = type { double, ptr, ptr, i32, i32, i32, double, double, ptr, i32, ptr, ptr, i32, ptr, i32, i32, double, double, ptr, i32, i32, i32, ptr, ptr, ptr, i32, i32, ptr, ptr, ptr, i32, double, i32, i32, double, ptr, ptr, i32, ptr, ptr, i32, i32, i32, double, ptr, ptr, [13 x ptr], ptr, ptr, ptr, ptr, ptr, [13 x ptr], ptr, ptr, ptr, ptr, [13 x ptr], ptr, ptr, ptr, ptr, ptr, i32, [13 x ptr], ptr, ptr, ptr, ptr, ptr, i32, double, i32, i32, i32, i32, i32, double, double, double, double, double, double, double, double, [14 x double], [6 x double], [13 x double], double, double, double, double, double, double, double, double, double, double, double, i32, ptr, i32, i64, i32, i32, i32, i32, i32, double, double, double, i64, i64, i64, i64, i64, i64, i64, i64, i64, ptr, i64, i64, ptr, i64, i64, i64, i64, i64, i64, i32, i64, i64, i64, i64, i64, i64, double, double, double, ptr, ptr, ptr, ptr, ptr, i32, i32, i64, double, double, double, i32, double, i32, i32, i32, i32, i32, i32, i32, i32, i32, i32, i32, i32, i32, i32, i32, i32, ptr, ptr, ptr, i32, [6 x [4 x double]], i32, i64, ptr, i32, ptr, ptr, double, double, double, ptr, ptr, ptr, double, double, i32, i32, i64, ptr, i32, i32, ptr, i32 }

; Function Attrs: nounwind uwtable
define internal void @cvQuadSensFreeVectors(ptr noundef %0) #0 {
  %2 = alloca ptr, align 8
  %3 = alloca i32, align 4
  %4 = alloca i32, align 4
  store ptr %0, ptr %2, align 8, !tbaa !7
  call void @llvm.lifetime.start.p0(i64 4, ptr %3) #8
  call void @llvm.lifetime.start.p0(i64 4, ptr %4) #8
  %5 = load ptr, ptr %2, align 8, !tbaa !7
  %6 = getelementptr inbounds nuw %struct.CVodeMemRec, ptr %5, i32 0, i32 156
  %7 = load i32, ptr %6, align 4, !tbaa !227
  store i32 %7, ptr %4, align 4, !tbaa !3
  %8 = load ptr, ptr %2, align 8, !tbaa !7
  %9 = getelementptr inbounds nuw %struct.CVodeMemRec, ptr %8, i32 0, i32 69
  %10 = load ptr, ptr %9, align 8, !tbaa !220
  call void @N_VDestroy(ptr noundef %10)
  %11 = load ptr, ptr %2, align 8, !tbaa !7
  %12 = getelementptr inbounds nuw %struct.CVodeMemRec, ptr %11, i32 0, i32 66
  %13 = load ptr, ptr %12, align 8, !tbaa !221
  %14 = load ptr, ptr %2, align 8, !tbaa !7
  %15 = getelementptr inbounds nuw %struct.CVodeMemRec, ptr %14, i32 0, i32 20
  %16 = load i32, ptr %15, align 4, !tbaa !184
  call void @N_VDestroyVectorArray(ptr noundef %13, i32 noundef %16)
  %17 = load ptr, ptr %2, align 8, !tbaa !7
  %18 = getelementptr inbounds nuw %struct.CVodeMemRec, ptr %17, i32 0, i32 65
  %19 = load ptr, ptr %18, align 8, !tbaa !222
  %20 = load ptr, ptr %2, align 8, !tbaa !7
  %21 = getelementptr inbounds nuw %struct.CVodeMemRec, ptr %20, i32 0, i32 20
  %22 = load i32, ptr %21, align 4, !tbaa !184
  call void @N_VDestroyVectorArray(ptr noundef %19, i32 noundef %22)
  %23 = load ptr, ptr %2, align 8, !tbaa !7
  %24 = getelementptr inbounds nuw %struct.CVodeMemRec, ptr %23, i32 0, i32 67
  %25 = load ptr, ptr %24, align 8, !tbaa !223
  %26 = load ptr, ptr %2, align 8, !tbaa !7
  %27 = getelementptr inbounds nuw %struct.CVodeMemRec, ptr %26, i32 0, i32 20
  %28 = load i32, ptr %27, align 4, !tbaa !184
  call void @N_VDestroyVectorArray(ptr noundef %25, i32 noundef %28)
  %29 = load ptr, ptr %2, align 8, !tbaa !7
  %30 = getelementptr inbounds nuw %struct.CVodeMemRec, ptr %29, i32 0, i32 68
  %31 = load ptr, ptr %30, align 8, !tbaa !224
  %32 = load ptr, ptr %2, align 8, !tbaa !7
  %33 = getelementptr inbounds nuw %struct.CVodeMemRec, ptr %32, i32 0, i32 20
  %34 = load i32, ptr %33, align 4, !tbaa !184
  call void @N_VDestroyVectorArray(ptr noundef %31, i32 noundef %34)
  store i32 0, ptr %3, align 4, !tbaa !3
  br label %35

35:                                               ; preds = %49, %1
  %36 = load i32, ptr %3, align 4, !tbaa !3
  %37 = load i32, ptr %4, align 4, !tbaa !3
  %38 = icmp sle i32 %36, %37
  br i1 %38, label %39, label %52

39:                                               ; preds = %35
  %40 = load ptr, ptr %2, align 8, !tbaa !7
  %41 = getelementptr inbounds nuw %struct.CVodeMemRec, ptr %40, i32 0, i32 64
  %42 = load i32, ptr %3, align 4, !tbaa !3
  %43 = sext i32 %42 to i64
  %44 = getelementptr inbounds [13 x ptr], ptr %41, i64 0, i64 %43
  %45 = load ptr, ptr %44, align 8, !tbaa !104
  %46 = load ptr, ptr %2, align 8, !tbaa !7
  %47 = getelementptr inbounds nuw %struct.CVodeMemRec, ptr %46, i32 0, i32 20
  %48 = load i32, ptr %47, align 4, !tbaa !184
  call void @N_VDestroyVectorArray(ptr noundef %45, i32 noundef %48)
  br label %49

49:                                               ; preds = %39
  %50 = load i32, ptr %3, align 4, !tbaa !3
  %51 = add nsw i32 %50, 1
  store i32 %51, ptr %3, align 4, !tbaa !3
  br label %35, !llvm.loop !290

52:                                               ; preds = %35
  %53 = load i32, ptr %4, align 4, !tbaa !3
  %54 = add nsw i32 %53, 5
  %55 = load ptr, ptr %2, align 8, !tbaa !7
  %56 = getelementptr inbounds nuw %struct.CVodeMemRec, ptr %55, i32 0, i32 20
  %57 = load i32, ptr %56, align 4, !tbaa !184
  %58 = mul nsw i32 %54, %57
  %59 = sext i32 %58 to i64
  %60 = load ptr, ptr %2, align 8, !tbaa !7
  %61 = getelementptr inbounds nuw %struct.CVodeMemRec, ptr %60, i32 0, i32 133
  %62 = load i64, ptr %61, align 8, !tbaa !171
  %63 = mul nsw i64 %59, %62
  %64 = load ptr, ptr %2, align 8, !tbaa !7
  %65 = getelementptr inbounds nuw %struct.CVodeMemRec, ptr %64, i32 0, i32 135
  %66 = load i64, ptr %65, align 8, !tbaa !86
  %67 = sub nsw i64 %66, %63
  store i64 %67, ptr %65, align 8, !tbaa !86
  %68 = load i32, ptr %4, align 4, !tbaa !3
  %69 = add nsw i32 %68, 5
  %70 = load ptr, ptr %2, align 8, !tbaa !7
  %71 = getelementptr inbounds nuw %struct.CVodeMemRec, ptr %70, i32 0, i32 20
  %72 = load i32, ptr %71, align 4, !tbaa !184
  %73 = mul nsw i32 %69, %72
  %74 = sext i32 %73 to i64
  %75 = load ptr, ptr %2, align 8, !tbaa !7
  %76 = getelementptr inbounds nuw %struct.CVodeMemRec, ptr %75, i32 0, i32 134
  %77 = load i64, ptr %76, align 8, !tbaa !172
  %78 = mul nsw i64 %74, %77
  %79 = load ptr, ptr %2, align 8, !tbaa !7
  %80 = getelementptr inbounds nuw %struct.CVodeMemRec, ptr %79, i32 0, i32 136
  %81 = load i64, ptr %80, align 8, !tbaa !87
  %82 = sub nsw i64 %81, %78
  store i64 %82, ptr %80, align 8, !tbaa !87
  %83 = load ptr, ptr %2, align 8, !tbaa !7
  %84 = getelementptr inbounds nuw %struct.CVodeMemRec, ptr %83, i32 0, i32 166
  %85 = load i32, ptr %84, align 4, !tbaa !95
  %86 = icmp ne i32 %85, 0
  br i1 %86, label %87, label %118

87:                                               ; preds = %52
  %88 = load ptr, ptr %2, align 8, !tbaa !7
  %89 = getelementptr inbounds nuw %struct.CVodeMemRec, ptr %88, i32 0, i32 45
  %90 = load ptr, ptr %89, align 8, !tbaa !235
  %91 = load ptr, ptr %2, align 8, !tbaa !7
  %92 = getelementptr inbounds nuw %struct.CVodeMemRec, ptr %91, i32 0, i32 20
  %93 = load i32, ptr %92, align 4, !tbaa !184
  call void @N_VDestroyVectorArray(ptr noundef %90, i32 noundef %93)
  %94 = load ptr, ptr %2, align 8, !tbaa !7
  %95 = getelementptr inbounds nuw %struct.CVodeMemRec, ptr %94, i32 0, i32 20
  %96 = load i32, ptr %95, align 4, !tbaa !184
  %97 = sext i32 %96 to i64
  %98 = load ptr, ptr %2, align 8, !tbaa !7
  %99 = getelementptr inbounds nuw %struct.CVodeMemRec, ptr %98, i32 0, i32 133
  %100 = load i64, ptr %99, align 8, !tbaa !171
  %101 = mul nsw i64 %97, %100
  %102 = load ptr, ptr %2, align 8, !tbaa !7
  %103 = getelementptr inbounds nuw %struct.CVodeMemRec, ptr %102, i32 0, i32 135
  %104 = load i64, ptr %103, align 8, !tbaa !86
  %105 = sub nsw i64 %104, %101
  store i64 %105, ptr %103, align 8, !tbaa !86
  %106 = load ptr, ptr %2, align 8, !tbaa !7
  %107 = getelementptr inbounds nuw %struct.CVodeMemRec, ptr %106, i32 0, i32 20
  %108 = load i32, ptr %107, align 4, !tbaa !184
  %109 = sext i32 %108 to i64
  %110 = load ptr, ptr %2, align 8, !tbaa !7
  %111 = getelementptr inbounds nuw %struct.CVodeMemRec, ptr %110, i32 0, i32 134
  %112 = load i64, ptr %111, align 8, !tbaa !172
  %113 = mul nsw i64 %109, %112
  %114 = load ptr, ptr %2, align 8, !tbaa !7
  %115 = getelementptr inbounds nuw %struct.CVodeMemRec, ptr %114, i32 0, i32 136
  %116 = load i64, ptr %115, align 8, !tbaa !87
  %117 = sub nsw i64 %116, %113
  store i64 %117, ptr %115, align 8, !tbaa !87
  br label %118

118:                                              ; preds = %87, %52
  %119 = load ptr, ptr %2, align 8, !tbaa !7
  %120 = getelementptr inbounds nuw %struct.CVodeMemRec, ptr %119, i32 0, i32 167
  %121 = load i32, ptr %120, align 8, !tbaa !96
  %122 = icmp ne i32 %121, 0
  br i1 %122, label %123, label %137

123:                                              ; preds = %118
  %124 = load ptr, ptr %2, align 8, !tbaa !7
  %125 = getelementptr inbounds nuw %struct.CVodeMemRec, ptr %124, i32 0, i32 44
  %126 = load ptr, ptr %125, align 8, !tbaa !232
  call void @free(ptr noundef %126) #8
  %127 = load ptr, ptr %2, align 8, !tbaa !7
  %128 = getelementptr inbounds nuw %struct.CVodeMemRec, ptr %127, i32 0, i32 44
  store ptr null, ptr %128, align 8, !tbaa !232
  %129 = load ptr, ptr %2, align 8, !tbaa !7
  %130 = getelementptr inbounds nuw %struct.CVodeMemRec, ptr %129, i32 0, i32 20
  %131 = load i32, ptr %130, align 4, !tbaa !184
  %132 = sext i32 %131 to i64
  %133 = load ptr, ptr %2, align 8, !tbaa !7
  %134 = getelementptr inbounds nuw %struct.CVodeMemRec, ptr %133, i32 0, i32 135
  %135 = load i64, ptr %134, align 8, !tbaa !86
  %136 = sub nsw i64 %135, %132
  store i64 %136, ptr %134, align 8, !tbaa !86
  br label %137

137:                                              ; preds = %123, %118
  %138 = load ptr, ptr %2, align 8, !tbaa !7
  %139 = getelementptr inbounds nuw %struct.CVodeMemRec, ptr %138, i32 0, i32 166
  store i32 0, ptr %139, align 4, !tbaa !95
  %140 = load ptr, ptr %2, align 8, !tbaa !7
  %141 = getelementptr inbounds nuw %struct.CVodeMemRec, ptr %140, i32 0, i32 167
  store i32 0, ptr %141, align 8, !tbaa !96
  call void @llvm.lifetime.end.p0(i64 4, ptr %4) #8
  call void @llvm.lifetime.end.p0(i64 4, ptr %3) #8
  ret void
}

; Function Attrs: nounwind uwtable
define void @CVodeQuadSensFree(ptr noundef %0) #0 {
  %2 = alloca ptr, align 8
  %3 = alloca ptr, align 8
  %4 = alloca i32, align 4
  store ptr %0, ptr %2, align 8, !tbaa !101
  call void @llvm.lifetime.start.p0(i64 8, ptr %3) #8
  %5 = load ptr, ptr %2, align 8, !tbaa !101
  %6 = icmp eq ptr %5, null
  br i1 %6, label %7, label %8

7:                                                ; preds = %1
  store i32 1, ptr %4, align 4
  br label %21

8:                                                ; preds = %1
  %9 = load ptr, ptr %2, align 8, !tbaa !101
  store ptr %9, ptr %3, align 8, !tbaa !7
  %10 = load ptr, ptr %3, align 8, !tbaa !7
  %11 = getelementptr inbounds nuw %struct.CVodeMemRec, ptr %10, i32 0, i32 168
  %12 = load i32, ptr %11, align 4, !tbaa !97
  %13 = icmp ne i32 %12, 0
  br i1 %13, label %14, label %20

14:                                               ; preds = %8
  %15 = load ptr, ptr %3, align 8, !tbaa !7
  call void @cvQuadSensFreeVectors(ptr noundef %15)
  %16 = load ptr, ptr %3, align 8, !tbaa !7
  %17 = getelementptr inbounds nuw %struct.CVodeMemRec, ptr %16, i32 0, i32 168
  store i32 0, ptr %17, align 4, !tbaa !97
  %18 = load ptr, ptr %3, align 8, !tbaa !7
  %19 = getelementptr inbounds nuw %struct.CVodeMemRec, ptr %18, i32 0, i32 37
  store i32 0, ptr %19, align 8, !tbaa !75
  br label %20

20:                                               ; preds = %14, %8
  store i32 0, ptr %4, align 4
  br label %21

21:                                               ; preds = %20, %7
  call void @llvm.lifetime.end.p0(i64 8, ptr %3) #8
  %22 = load i32, ptr %4, align 4
  switch i32 %22, label %24 [
    i32 0, label %23
    i32 1, label %23
  ]

23:                                               ; preds = %21, %21
  ret void

24:                                               ; preds = %21
  unreachable
}