; Function Attrs: nounwind uwtable
define void @CVodeQuadSensFree(ptr noundef captures(address_is_null) %0) local_unnamed_addr #0 {
  %2 = icmp eq ptr %0, null
  br i1 %2, label %72, label %3

3:                                                ; preds = %1
  %4 = getelementptr inbounds nuw i8, ptr %0, i64 1820
  %5 = load i32, ptr %4, align 4, !tbaa !185
  %.not = icmp eq i32 %5, 0
  br i1 %.not, label %72, label %6

6:                                                ; preds = %3
  %7 = getelementptr inbounds nuw i8, ptr %0, i64 1772
  %8 = load i32, ptr %7, align 4, !tbaa !179
  %9 = getelementptr inbounds nuw i8, ptr %0, i64 888
  %10 = load ptr, ptr %9, align 8, !tbaa !172
  tail call void @N_VDestroy(ptr noundef %10) #13
  %11 = getelementptr inbounds nuw i8, ptr %0, i64 864
  %12 = load ptr, ptr %11, align 8, !tbaa !173
  %13 = getelementptr inbounds nuw i8, ptr %0, i64 140
  %14 = load i32, ptr %13, align 4, !tbaa !133
  tail call void @N_VDestroyVectorArray(ptr noundef %12, i32 noundef %14) #13
  %15 = getelementptr inbounds nuw i8, ptr %0, i64 856
  %16 = load ptr, ptr %15, align 8, !tbaa !174
  %17 = load i32, ptr %13, align 4, !tbaa !133
  tail call void @N_VDestroyVectorArray(ptr noundef %16, i32 noundef %17) #13
  %18 = getelementptr inbounds nuw i8, ptr %0, i64 872
  %19 = load ptr, ptr %18, align 8, !tbaa !175
  %20 = load i32, ptr %13, align 4, !tbaa !133
  tail call void @N_VDestroyVectorArray(ptr noundef %19, i32 noundef %20) #13
  %21 = getelementptr inbounds nuw i8, ptr %0, i64 880
  %22 = load ptr, ptr %21, align 8, !tbaa !176
  %23 = load i32, ptr %13, align 4, !tbaa !133
  tail call void @N_VDestroyVectorArray(ptr noundef %22, i32 noundef %23) #13
  %.not42.i = icmp slt i32 %8, 0
  br i1 %.not42.i, label %._crit_edge.i, label %.lr.ph.i

.lr.ph.i:                                         ; preds = %6
  %24 = getelementptr inbounds nuw i8, ptr %0, i64 752
  %25 = add nuw i32 %8, 1
  %wide.trip.count.i = zext i32 %25 to i64
  br label %26

26:                                               ; preds = %26, %.lr.ph.i
  %indvars.iv.i = phi i64 [ 0, %.lr.ph.i ], [ %indvars.iv.next.i, %26 ]
  %27 = getelementptr inbounds nuw [13 x ptr], ptr %24, i64 0, i64 %indvars.iv.i
  %28 = load ptr, ptr %27, align 8, !tbaa !137
  %29 = load i32, ptr %13, align 4, !tbaa !133
  tail call void @N_VDestroyVectorArray(ptr noundef %28, i32 noundef %29) #13
  %indvars.iv.next.i = add nuw nsw i64 %indvars.iv.i, 1
  %exitcond.not.i = icmp eq i64 %indvars.iv.next.i, %wide.trip.count.i
  br i1 %exitcond.not.i, label %._crit_edge.i, label %26, !llvm.loop !381

._crit_edge.i:                                    ; preds = %26, %6
  %30 = add nsw i32 %8, 5
  %31 = load i32, ptr %13, align 4, !tbaa !133
  %32 = mul nsw i32 %31, %30
  %33 = sext i32 %32 to i64
  %34 = getelementptr inbounds nuw i8, ptr %0, i64 1608
  %35 = load i64, ptr %34, align 8, !tbaa !114
  %36 = mul nsw i64 %35, %33
  %37 = getelementptr inbounds nuw i8, ptr %0, i64 1624
  %38 = load i64, ptr %37, align 8, !tbaa !42
  %39 = sub nsw i64 %38, %36
  store i64 %39, ptr %37, align 8, !tbaa !42
  %40 = getelementptr inbounds nuw i8, ptr %0, i64 1616
  %41 = load i64, ptr %40, align 8, !tbaa !115
  %42 = mul nsw i64 %41, %33
  %43 = getelementptr inbounds nuw i8, ptr %0, i64 1632
  %44 = load i64, ptr %43, align 8, !tbaa !43
  %45 = sub nsw i64 %44, %42
  store i64 %45, ptr %43, align 8, !tbaa !43
  %46 = getelementptr inbounds nuw i8, ptr %0, i64 1812
  %47 = load i32, ptr %46, align 4, !tbaa !196
  %.not40.i = icmp eq i32 %47, 0
  br i1 %.not40.i, label %61, label %48

48:                                               ; preds = %._crit_edge.i
  %49 = getelementptr inbounds nuw i8, ptr %0, i64 312
  %50 = load ptr, ptr %49, align 8, !tbaa !197
  tail call void @N_VDestroyVectorArray(ptr noundef %50, i32 noundef %31) #13
  %51 = load i32, ptr %13, align 4, !tbaa !133
  %52 = sext i32 %51 to i64
  %53 = load i64, ptr %34, align 8, !tbaa !114
  %54 = mul nsw i64 %53, %52
  %55 = load i64, ptr %37, align 8, !tbaa !42
  %56 = sub nsw i64 %55, %54
  store i64 %56, ptr %37, align 8, !tbaa !42
  %57 = load i64, ptr %40, align 8, !tbaa !115
  %58 = mul nsw i64 %57, %52
  %59 = load i64, ptr %43, align 8, !tbaa !43
  %60 = sub nsw i64 %59, %58
  store i64 %60, ptr %43, align 8, !tbaa !43
  br label %61

61:                                               ; preds = %48, %._crit_edge.i
  %62 = getelementptr inbounds nuw i8, ptr %0, i64 1816
  %63 = load i32, ptr %62, align 8, !tbaa !192
  %.not41.i = icmp eq i32 %63, 0
  br i1 %.not41.i, label %cvQuadSensFreeVectors.exit, label %64

64:                                               ; preds = %61
  %65 = getelementptr inbounds nuw i8, ptr %0, i64 304
  %66 = load ptr, ptr %65, align 8, !tbaa !193
  tail call void @free(ptr noundef %66) #13
  store ptr null, ptr %65, align 8, !tbaa !193
  %67 = load i32, ptr %13, align 4, !tbaa !133
  %68 = sext i32 %67 to i64
  %69 = load i64, ptr %37, align 8, !tbaa !42
  %70 = sub nsw i64 %69, %68
  store i64 %70, ptr %37, align 8, !tbaa !42
  br label %cvQuadSensFreeVectors.exit

cvQuadSensFreeVectors.exit:                       ; preds = %61, %64
  store i32 0, ptr %46, align 4, !tbaa !196
  store i32 0, ptr %62, align 8, !tbaa !192
  store i32 0, ptr %4, align 4, !tbaa !185
  %71 = getelementptr inbounds nuw i8, ptr %0, i64 256
  store i32 0, ptr %71, align 8, !tbaa !184
  br label %72

72:                                               ; preds = %3, %cvQuadSensFreeVectors.exit, %1
  ret void
}